target datalayout = "e-m:e-p270:32:32-p271:32:32-p272:64:64-i64:64-i128:128-f80:128-n8:16:32:64-S128"
target triple = "x86_64-pc-linux-gnu"

%struct.rb_data_type_struct = type { ptr, %struct.anon.22, ptr, ptr, i64 }
%struct.anon.22 = type { ptr, ptr, ptr, ptr, [1 x ptr] }
%struct.RBasic = type { i64, i64 }
%struct.RTypedData = type { %struct.RBasic, ptr, i64, ptr }

@ibf_load_type = internal constant %struct.rb_data_type_struct { ptr @.str.244, %struct.anon.22 { ptr @ibf_loader_mark, ptr @ibf_loader_free, ptr @ibf_loader_memsize, ptr null, [1 x ptr] zeroinitializer }, ptr null, ptr null, i64 33 }, align 8

; Function Attrs: inlinehint nounwind sspstrong uwtable
define internal zeroext i1 @RTYPEDDATA_EMBEDDED_P(i64 noundef %0) #3 {
  %2 = alloca i64, align 8
  store i64 %0, ptr %2, align 8, !tbaa !7
  %3 = load i64, ptr %2, align 8, !tbaa !7
  %4 = inttoptr i64 %3 to ptr
  %5 = getelementptr inbounds nuw %struct.RTypedData, ptr %4, i32 0, i32 2
  %6 = load i64, ptr %5, align 8, !tbaa !1301
  %7 = and i64 %6, 2
  %8 = icmp ne i64 %7, 0
  ret i1 %8
}

; Function Attrs: inlinehint nounwind sspstrong uwtable
define internal ptr @RTYPEDDATA_GET_DATA(i64 noundef %0) #3 {
  %2 = alloca i64, align 8
  %3 = alloca i64, align 8
  store i64 %0, ptr %2, align 8, !tbaa !7
  call void @llvm.lifetime.start.p0(i64 8, ptr %3) #31
  store i64 32, ptr %3, align 8, !tbaa !7
  %4 = load i64, ptr %2, align 8, !tbaa !7
  %5 = call zeroext i1 @RTYPEDDATA_EMBEDDED_P(i64 noundef %4)
  br i1 %5, label %6, label %10

6:                                                ; preds = %1
  %7 = load i64, ptr %2, align 8, !tbaa !7
  %8 = inttoptr i64 %7 to ptr
  %9 = getelementptr i8, ptr %8, i64 32
  br label %15

10:                                               ; preds = %1
  %11 = load i64, ptr %2, align 8, !tbaa !7
  %12 = inttoptr i64 %11 to ptr
  %13 = getelementptr inbounds nuw %struct.RTypedData, ptr %12, i32 0, i32 3
  %14 = load ptr, ptr %13, align 8, !tbaa !197
  br label %15

15:                                               ; preds = %10, %6
  %16 = phi ptr [ %9, %6 ], [ %14, %10 ]
  call void @llvm.lifetime.end.p0(i64 8, ptr %3) #31
  ret ptr %16
}

; Function Attrs: nounwind sspstrong uwtable
define hidden ptr @rb_iseq_ibf_load_bytes(ptr noundef %0, i64 noundef %1) #0 {
  %3 = alloca ptr, align 8
  %4 = alloca i64, align 8
  %5 = alloca ptr, align 8
  %6 = alloca ptr, align 8
  %7 = alloca i64, align 8
  %8 = alloca i64, align 8
  %9 = alloca i64, align 8
  %10 = alloca ptr, align 8
  %11 = alloca ptr, align 8
  store ptr %0, ptr %3, align 8, !tbaa !91
  store i64 %1, ptr %4, align 8, !tbaa !7
  call void @llvm.lifetime.start.p0(i64 8, ptr %5) #31
  call void @llvm.lifetime.start.p0(i64 8, ptr %6) #31
  call void @llvm.lifetime.start.p0(i64 8, ptr %7) #31
  call void @llvm.lifetime.start.p0(i64 8, ptr %8) #31
  %12 = call i64 @rb_data_typed_object_zalloc(i64 noundef 0, i64 noundef 80, ptr noundef @ibf_load_type)
  store i64 %12, ptr %8, align 8, !tbaa !7
  %13 = load i64, ptr %8, align 8, !tbaa !7
  %14 = call ptr @RTYPEDDATA_GET_DATA(i64 noundef %13)
  store ptr %14, ptr %5, align 8, !tbaa !253
  %15 = load i64, ptr %8, align 8, !tbaa !7
  store i64 %15, ptr %9, align 8, !tbaa !7
  call void @llvm.lifetime.end.p0(i64 8, ptr %8) #31
  %16 = load i64, ptr %9, align 8, !tbaa !7
  store i64 %16, ptr %7, align 8, !tbaa !7
  %17 = load ptr, ptr %5, align 8, !tbaa !253
  %18 = load i64, ptr %7, align 8, !tbaa !7
  %19 = load ptr, ptr %3, align 8, !tbaa !91
  %20 = load i64, ptr %4, align 8, !tbaa !7
  call void @ibf_load_setup_bytes(ptr noundef %17, i64 noundef %18, ptr noundef %19, i64 noundef %20)
  %21 = load ptr, ptr %5, align 8, !tbaa !253
  %22 = call ptr @ibf_load_iseq(ptr noundef %21, ptr noundef null)
  store ptr %22, ptr %6, align 8, !tbaa !11
  call void @llvm.lifetime.start.p0(i64 8, ptr %10) #31
  store ptr %7, ptr %10, align 8, !tbaa !42
  call void asm sideeffect "", "*m,~{dirflag},~{fpsr},~{flags}"(ptr elementtype(ptr) %10) #31, !srcloc !282
  %23 = load ptr, ptr %10, align 8, !tbaa !42
  store ptr %23, ptr %11, align 8, !tbaa !42
  call void @llvm.lifetime.end.p0(i64 8, ptr %10) #31
  %24 = load ptr, ptr %11, align 8, !tbaa !42
  %25 = load volatile i64, ptr %24, align 8, !tbaa !7
  %26 = load ptr, ptr %6, align 8, !tbaa !11
  call void @llvm.lifetime.end.p0(i64 8, ptr %7) #31
  call void @llvm.lifetime.end.p0(i64 8, ptr %6) #31
  call void @llvm.lifetime.end.p0(i64 8, ptr %5) #31
  ret ptr %26
}