; Function Attrs: nounwind sspstrong uwtable
define hidden ptr @rb_iseq_ibf_load_bytes(ptr noundef %0, i64 noundef %1) local_unnamed_addr #1 {
  %3 = alloca i64, align 8
  %4 = alloca ptr, align 8
  call void @llvm.lifetime.start.p0(i64 8, ptr nonnull %3) #38
  %5 = tail call i64 @rb_data_typed_object_zalloc(i64 noundef 0, i64 noundef 80, ptr noundef nonnull @ibf_load_type) #38
  %6 = inttoptr i64 %5 to ptr
  %7 = getelementptr inbounds nuw i8, ptr %6, i64 24
  %8 = load i64, ptr %7, align 8, !tbaa !301
  %9 = and i64 %8, 2
  %.not.i = icmp eq i64 %9, 0
  %10 = getelementptr i8, ptr %6, i64 32
  br i1 %.not.i, label %11, label %RTYPEDDATA_GET_DATA.exit

11:                                               ; preds = %2
  %12 = load ptr, ptr %10, align 8, !tbaa !282
  br label %RTYPEDDATA_GET_DATA.exit

RTYPEDDATA_GET_DATA.exit:                         ; preds = %2, %11
  %13 = phi ptr [ %12, %11 ], [ %10, %2 ]
  store i64 %5, ptr %3, align 8, !tbaa !37
  tail call fastcc void @ibf_load_setup_bytes(ptr noundef %13, i64 noundef %5, ptr noundef %0, i64 noundef %1)
  %14 = tail call fastcc ptr @ibf_load_iseq(ptr noundef %13, ptr noundef null)
  call void @llvm.lifetime.start.p0(i64 8, ptr nonnull %4) #38
  store ptr %3, ptr %4, align 8, !tbaa !89
  call void asm sideeffect "", "*m,~{dirflag},~{fpsr},~{flags}"(ptr nonnull elementtype(ptr) %4) #38, !srcloc !384
  %15 = load ptr, ptr %4, align 8, !tbaa !89
  call void @llvm.lifetime.end.p0(i64 8, ptr nonnull %4) #38
  %16 = load volatile i64, ptr %15, align 8, !tbaa !37
  call void @llvm.lifetime.end.p0(i64 8, ptr nonnull %3) #38
  ret ptr %14
}